target datalayout = "e-m:e-p270:32:32-p271:32:32-p272:64:64-i64:64-i128:128-f80:128-n8:16:32:64-S128"
target triple = "x86_64-pc-linux-gnu"

%struct.bignum_st = type { ptr, i32, i32, i32, i32 }

; Function Attrs: nounwind uwtable
define hidden ptr @BN_bin2bn(ptr noundef %0, i64 noundef %1, ptr noundef %2) #0 {
  %4 = alloca ptr, align 8
  %5 = alloca ptr, align 8
  %6 = alloca i64, align 8
  %7 = alloca ptr, align 8
  %8 = alloca i64, align 8
  %9 = alloca i32, align 4
  %10 = alloca i64, align 8
  %11 = alloca ptr, align 8
  %12 = alloca i32, align 4
  store ptr %0, ptr %5, align 8, !tbaa !6
  store i64 %1, ptr %6, align 8, !tbaa !11
  store ptr %2, ptr %7, align 8, !tbaa !13
  call void @llvm.lifetime.start.p0(i64 8, ptr %8) #7
  call void @llvm.lifetime.start.p0(i64 4, ptr %9) #7
  call void @llvm.lifetime.start.p0(i64 8, ptr %10) #7
  store i64 0, ptr %10, align 8, !tbaa !11
  call void @llvm.lifetime.start.p0(i64 8, ptr %11) #7
  store ptr null, ptr %11, align 8, !tbaa !13
  %13 = load ptr, ptr %7, align 8, !tbaa !13
  %14 = icmp eq ptr %13, null
  br i1 %14, label %15, label %17

15:                                               ; preds = %3
  %16 = call ptr @BN_new()
  store ptr %16, ptr %11, align 8, !tbaa !13
  store ptr %16, ptr %7, align 8, !tbaa !13
  br label %17

17:                                               ; preds = %15, %3
  %18 = load ptr, ptr %7, align 8, !tbaa !13
  %19 = icmp eq ptr %18, null
  br i1 %19, label %20, label %21

20:                                               ; preds = %17
  store ptr null, ptr %4, align 8
  store i32 1, ptr %12, align 4
  br label %81

21:                                               ; preds = %17
  %22 = load i64, ptr %6, align 8, !tbaa !11
  %23 = icmp eq i64 %22, 0
  br i1 %23, label %24, label %28

24:                                               ; preds = %21
  %25 = load ptr, ptr %7, align 8, !tbaa !13
  %26 = getelementptr inbounds nuw %struct.bignum_st, ptr %25, i32 0, i32 1
  store i32 0, ptr %26, align 8, !tbaa !15
  %27 = load ptr, ptr %7, align 8, !tbaa !13
  store ptr %27, ptr %4, align 8
  store i32 1, ptr %12, align 4
  br label %81

28:                                               ; preds = %21
  %29 = load i64, ptr %6, align 8, !tbaa !11
  %30 = sub i64 %29, 1
  %31 = udiv i64 %30, 8
  %32 = add i64 %31, 1
  store i64 %32, ptr %8, align 8, !tbaa !11
  %33 = load i64, ptr %6, align 8, !tbaa !11
  %34 = sub i64 %33, 1
  %35 = urem i64 %34, 8
  %36 = trunc i64 %35 to i32
  store i32 %36, ptr %9, align 4, !tbaa !19
  %37 = load ptr, ptr %7, align 8, !tbaa !13
  %38 = load i64, ptr %8, align 8, !tbaa !11
  %39 = call ptr @bn_wexpand(ptr noundef %37, i64 noundef %38)
  %40 = icmp eq ptr %39, null
  br i1 %40, label %41, label %47

41:                                               ; preds = %28
  %42 = load ptr, ptr %11, align 8, !tbaa !13
  %43 = icmp ne ptr %42, null
  br i1 %43, label %44, label %46

44:                                               ; preds = %41
  %45 = load ptr, ptr %11, align 8, !tbaa !13
  call void @BN_free(ptr noundef %45)
  br label %46

46:                                               ; preds = %44, %41
  store ptr null, ptr %4, align 8
  store i32 1, ptr %12, align 4
  br label %81

47:                                               ; preds = %28
  %48 = load i64, ptr %8, align 8, !tbaa !11
  %49 = trunc i64 %48 to i32
  %50 = load ptr, ptr %7, align 8, !tbaa !13
  %51 = getelementptr inbounds nuw %struct.bignum_st, ptr %50, i32 0, i32 1
  store i32 %49, ptr %51, align 8, !tbaa !15
  %52 = load ptr, ptr %7, align 8, !tbaa !13
  %53 = getelementptr inbounds nuw %struct.bignum_st, ptr %52, i32 0, i32 3
  store i32 0, ptr %53, align 8, !tbaa !20
  br label %54

54:                                               ; preds = %77, %47
  %55 = load i64, ptr %6, align 8, !tbaa !11
  %56 = add i64 %55, -1
  store i64 %56, ptr %6, align 8, !tbaa !11
  %57 = icmp ne i64 %55, 0
  br i1 %57, label %58, label %78

58:                                               ; preds = %54
  %59 = load i64, ptr %10, align 8, !tbaa !11
  %60 = shl i64 %59, 8
  %61 = load ptr, ptr %5, align 8, !tbaa !6
  %62 = getelementptr inbounds nuw i8, ptr %61, i32 1
  store ptr %62, ptr %5, align 8, !tbaa !6
  %63 = load i8, ptr %61, align 1, !tbaa !21
  %64 = zext i8 %63 to i64
  %65 = or i64 %60, %64
  store i64 %65, ptr %10, align 8, !tbaa !11
  %66 = load i32, ptr %9, align 4, !tbaa !19
  %67 = add i32 %66, -1
  store i32 %67, ptr %9, align 4, !tbaa !19
  %68 = icmp eq i32 %66, 0
  br i1 %68, label %69, label %77

69:                                               ; preds = %58
  %70 = load i64, ptr %10, align 8, !tbaa !11
  %71 = load ptr, ptr %7, align 8, !tbaa !13
  %72 = getelementptr inbounds nuw %struct.bignum_st, ptr %71, i32 0, i32 0
  %73 = load ptr, ptr %72, align 8, !tbaa !22
  %74 = load i64, ptr %8, align 8, !tbaa !11
  %75 = add i64 %74, -1
  store i64 %75, ptr %8, align 8, !tbaa !11
  %76 = getelementptr inbounds nuw i64, ptr %73, i64 %75
  store i64 %70, ptr %76, align 8, !tbaa !11
  store i64 0, ptr %10, align 8, !tbaa !11
  store i32 7, ptr %9, align 4, !tbaa !19
  br label %77

77:                                               ; preds = %69, %58
  br label %54, !llvm.loop !23

78:                                               ; preds = %54
  %79 = load ptr, ptr %7, align 8, !tbaa !13
  call void @bn_correct_top(ptr noundef %79)
  %80 = load ptr, ptr %7, align 8, !tbaa !13
  store ptr %80, ptr %4, align 8
  store i32 1, ptr %12, align 4
  br label %81

81:                                               ; preds = %78, %46, %24, %20
  call void @llvm.lifetime.end.p0(i64 8, ptr %11) #7
  call void @llvm.lifetime.end.p0(i64 8, ptr %10) #7
  call void @llvm.lifetime.end.p0(i64 4, ptr %9) #7
  call void @llvm.lifetime.end.p0(i64 8, ptr %8) #7
  %82 = load ptr, ptr %4, align 8
  ret ptr %82
}