; Function Attrs: nounwind uwtable
define hidden ptr @BN_bin2bn(ptr noundef readonly captures(none) %0, i64 noundef %1, ptr noundef %2) local_unnamed_addr #0 {
  %4 = icmp eq ptr %2, null
  br i1 %4, label %5, label %.thread

5:                                                ; preds = %3
  %6 = tail call ptr @BN_new() #9
  %7 = icmp eq ptr %6, null
  br i1 %7, label %40, label %.thread

.thread:                                          ; preds = %3, %5
  %.038 = phi ptr [ %6, %5 ], [ null, %3 ]
  %.02837 = phi ptr [ %6, %5 ], [ %2, %3 ]
  %8 = icmp eq i64 %1, 0
  br i1 %8, label %9, label %11

9:                                                ; preds = %.thread
  %10 = getelementptr inbounds nuw i8, ptr %.02837, i64 8
  store i32 0, ptr %10, align 8, !tbaa !6
  br label %40

11:                                               ; preds = %.thread
  %12 = add i64 %1, -1
  %13 = lshr i64 %12, 3
  %14 = add nuw nsw i64 %13, 1
  %15 = tail call ptr @bn_wexpand(ptr noundef nonnull %.02837, i64 noundef %14) #9
  %16 = icmp eq ptr %15, null
  br i1 %16, label %17, label %19

17:                                               ; preds = %11
  %.not34 = icmp eq ptr %.038, null
  br i1 %.not34, label %40, label %18

18:                                               ; preds = %17
  tail call void @BN_free(ptr noundef nonnull %.038) #9
  br label %40

19:                                               ; preds = %11
  %20 = trunc i64 %12 to i32
  %21 = and i32 %20, 7
  %22 = trunc i64 %14 to i32
  %23 = getelementptr inbounds nuw i8, ptr %.02837, i64 8
  store i32 %22, ptr %23, align 8, !tbaa !6
  %24 = getelementptr inbounds nuw i8, ptr %.02837, i64 16
  store i32 0, ptr %24, align 8, !tbaa !13
  br label %25

25:                                               ; preds = %19, %38
  %.in = phi i64 [ %1, %19 ], [ %26, %38 ]
  %.02342 = phi i64 [ 0, %19 ], [ %.1, %38 ]
  %.02441 = phi i32 [ %21, %19 ], [ %.125, %38 ]
  %.02640 = phi i64 [ %14, %19 ], [ %.127, %38 ]
  %.03039 = phi ptr [ %0, %19 ], [ %28, %38 ]
  %26 = add i64 %.in, -1
  %27 = shl i64 %.02342, 8
  %28 = getelementptr inbounds nuw i8, ptr %.03039, i64 1
  %29 = load i8, ptr %.03039, align 1, !tbaa !14
  %30 = zext i8 %29 to i64
  %31 = or disjoint i64 %27, %30
  %32 = add i32 %.02441, -1
  %33 = icmp eq i32 %.02441, 0
  br i1 %33, label %34, label %38

34:                                               ; preds = %25
  %35 = load ptr, ptr %.02837, align 8, !tbaa !15
  %36 = add i64 %.02640, -1
  %37 = getelementptr inbounds nuw i64, ptr %35, i64 %36
  store i64 %31, ptr %37, align 8, !tbaa !16
  br label %38

38:                                               ; preds = %34, %25
  %.127 = phi i64 [ %36, %34 ], [ %.02640, %25 ]
  %.125 = phi i32 [ 7, %34 ], [ %32, %25 ]
  %.1 = phi i64 [ 0, %34 ], [ %31, %25 ]
  %.not = icmp eq i64 %26, 0
  br i1 %.not, label %39, label %25, !llvm.loop !18

39:                                               ; preds = %38
  tail call void @bn_correct_top(ptr noundef nonnull %.02837) #9
  br label %40

40:                                               ; preds = %17, %18, %5, %39, %9
  %.031 = phi ptr [ %.02837, %9 ], [ %.02837, %39 ], [ null, %5 ], [ null, %18 ], [ null, %17 ]
  ret ptr %.031
}